target datalayout = "e-m:e-p270:32:32-p271:32:32-p272:64:64-i64:64-i128:128-f80:128-n8:16:32:64-S128"
target triple = "x86_64-unknown-linux-gnu"

%struct.QNum = type { %struct.QObjectBase_, i32, %union.anon }
%struct.QObjectBase_ = type { i32, i64 }
%union.anon = type { i64 }

@.str = private unnamed_addr constant [2 x i8] c"0\00", align 1
@.str.1 = private unnamed_addr constant [23 x i8] c"../qemu/qobject/qnum.c\00", align 1
@.str.2 = private unnamed_addr constant [8 x i8] c"success\00", align 1
@__PRETTY_FUNCTION__.qnum_get_try_uint = private unnamed_addr constant [50 x i8] c"_Bool qnum_get_try_uint(const QNum *, uint64_t *)\00", align 1
@__PRETTY_FUNCTION__.qnum_get_uint = private unnamed_addr constant [37 x i8] c"uint64_t qnum_get_uint(const QNum *)\00", align 1

; Function Attrs: nounwind sspstrong uwtable
define dso_local zeroext i1 @qnum_get_try_uint(ptr noundef %qn, ptr noundef %val) #0 {
entry:
  %retval = alloca i1, align 1
  %qn.addr = alloca ptr, align 8
  %val.addr = alloca ptr, align 8
  store ptr %qn, ptr %qn.addr, align 8
  store ptr %val, ptr %val.addr, align 8
  %0 = load ptr, ptr %qn.addr, align 8
  %kind = getelementptr inbounds %struct.QNum, ptr %0, i32 0, i32 1
  %1 = load i32, ptr %kind, align 8
  switch i32 %1, label %sw.epilog [
    i32 0, label %sw.bb
    i32 1, label %sw.bb2
    i32 2, label %sw.bb4
  ]

sw.bb:                                            ; preds = %entry
  %2 = load ptr, ptr %qn.addr, align 8
  %u = getelementptr inbounds %struct.QNum, ptr %2, i32 0, i32 2
  %3 = load i64, ptr %u, align 8
  %cmp = icmp slt i64 %3, 0
  br i1 %cmp, label %if.then, label %if.end

if.then:                                          ; preds = %sw.bb
  store i1 false, ptr %retval, align 1
  br label %return

if.end:                                           ; preds = %sw.bb
  %4 = load ptr, ptr %qn.addr, align 8
  %u1 = getelementptr inbounds %struct.QNum, ptr %4, i32 0, i32 2
  %5 = load i64, ptr %u1, align 8
  %6 = load ptr, ptr %val.addr, align 8
  store i64 %5, ptr %6, align 8
  store i1 true, ptr %retval, align 1
  br label %return

sw.bb2:                                           ; preds = %entry
  %7 = load ptr, ptr %qn.addr, align 8
  %u3 = getelementptr inbounds %struct.QNum, ptr %7, i32 0, i32 2
  %8 = load i64, ptr %u3, align 8
  %9 = load ptr, ptr %val.addr, align 8
  store i64 %8, ptr %9, align 8
  store i1 true, ptr %retval, align 1
  br label %return

sw.bb4:                                           ; preds = %entry
  store i1 false, ptr %retval, align 1
  br label %return

sw.epilog:                                        ; preds = %entry
  call void @__assert_fail(ptr noundef @.str, ptr noundef @.str.1, i32 noundef 126, ptr noundef @__PRETTY_FUNCTION__.qnum_get_try_uint) #5
  unreachable

return:                                           ; preds = %sw.bb4, %sw.bb2, %if.end, %if.then
  %10 = load i1, ptr %retval, align 1
  ret i1 %10
}

; Function Attrs: nounwind sspstrong uwtable
define dso_local i64 @qnum_get_uint(ptr noundef %qn) #0 {
entry:
  %qn.addr = alloca ptr, align 8
  %val = alloca i64, align 8
  %success = alloca i8, align 1
  store ptr %qn, ptr %qn.addr, align 8
  %0 = load ptr, ptr %qn.addr, align 8
  %call = call zeroext i1 @qnum_get_try_uint(ptr noundef %0, ptr noundef %val)
  %frombool = zext i1 %call to i8
  store i8 %frombool, ptr %success, align 1
  %1 = load i8, ptr %success, align 1
  %tobool = trunc i8 %1 to i1
  br i1 %tobool, label %if.then, label %if.else

if.then:                                          ; preds = %entry
  br label %if.end

if.else:                                          ; preds = %entry
  call void @__assert_fail(ptr noundef @.str.2, ptr noundef @.str.1, i32 noundef 139, ptr noundef @__PRETTY_FUNCTION__.qnum_get_uint) #5
  unreachable

if.end:                                           ; preds = %if.then
  %2 = load i64, ptr %val, align 8
  ret i64 %2
}